###############################################################################
#
# IAR ELF Linker V9.10.1.308/W64 for ARM                  13/Dec/2023  16:10:12
# Copyright 2007-2021 IAR Systems AB.
#
#    Output file  =
#        D:\ASU\4-Senior1\Fall 23\CSE211 Introduction to Embedded
#        Systems\Project\Code\Debug\Exe\code.out
#    Map file     =
#        D:\ASU\4-Senior1\Fall 23\CSE211 Introduction to Embedded
#        Systems\Project\Code\Debug\List\code.map
#    Command line =
#        -f "D:\ASU\4-Senior1\Fall 23\CSE211 Introduction to Embedded
#        Systems\Project\Code\Debug\Exe\code.out.rsp" ("D:\ASU\4-Senior1\Fall
#        23\CSE211 Introduction to Embedded
#        Systems\Project\Code\Debug\Obj\MCAL\GPIO\gpio.o"
#        "D:\ASU\4-Senior1\Fall 23\CSE211 Introduction to Embedded
#        Systems\Project\Code\Debug\Obj\main.o" "D:\ASU\4-Senior1\Fall
#        23\CSE211 Introduction to Embedded
#        Systems\Project\Code\Debug\Obj\HAL\SMOKE_SENSOR\smoke_sensor.o"
#        "D:\ASU\4-Senior1\Fall 23\CSE211 Introduction to Embedded
#        Systems\Project\Code\Debug\Obj\INC\startup_ewarm.o"
#        "D:\ASU\4-Senior1\Fall 23\CSE211 Introduction to Embedded
#        Systems\Project\Code\Debug\Obj\MCAL\SYSTICK\sysTick.o"
#        "D:\ASU\4-Senior1\Fall 23\CSE211 Introduction to Embedded
#        Systems\Project\Code\Debug\Obj\MCAL\TIMER\timer.o"
#        "D:\ASU\4-Senior1\Fall 23\CSE211 Introduction to Embedded
#        Systems\Project\Code\Debug\Obj\MCAL\UART\uart.o"
#        "D:\ASU\4-Senior1\Fall 23\CSE211 Introduction to Embedded
#        Systems\Project\Code\Debug\Obj\HAL\ULTRASONIC_SENSOR\ultrasonic_sensor.o"
#        --no_out_extension -o "D:\ASU\4-Senior1\Fall 23\CSE211 Introduction to
#        Embedded Systems\Project\Code\Debug\Exe\code.out" --redirect
#        _Printf=_PrintfFullNoMb --redirect _Scanf=_ScanfFullNoMb --map
#        "D:\ASU\4-Senior1\Fall 23\CSE211 Introduction to Embedded
#        Systems\Project\Code\Debug\List\code.map" --config
#        "D:\ASU\4-Senior1\Fall 23\CSE211 Introduction to Embedded
#        Systems\IAR_Systems\arm\config\linker\TexasInstruments\TM4C123GH6.icf"
#        --semihosting "D:\ASU\4-Senior1\Fall 23\CSE211 Introduction to
#        Embedded Systems\Tivaware\driverlib\ewarm\Exe\driverlib.a" --entry
#        __iar_program_start --vfe --text_out locale)
#
###############################################################################

*******************************************************************************
*** MESSAGES
***

Warning[Lt009]: Inconsistent wchar_t size
            interrupt.o(driverlib.a) and 3 other objects in driverlib.a have
                      wchar_t size 16 bits
            gpio.o and 24 other objects, some of them in dl7M_tln.a and 11
                      other libraries have wchar_t size 32 bits


*******************************************************************************
*** RUNTIME MODEL ATTRIBUTES
***

CppFlavor       = *
__SystemLibrary = DLib
__dlib_version  = 6


*******************************************************************************
*** HEAP SELECTION
***

The basic heap was selected because no calls to memory allocation
functions were found in the application outside of system library
functions, and there are calls to deallocation functions in the
application.


*******************************************************************************
*** PLACEMENT SUMMARY
***

"A0":  place at address 0x0 { ro section .intvec };
"P1":  place in [from 0x0 to 0x3'ffff] { ro };
define block CSTACK with size = 4K, alignment = 8 { };
define block HEAP with size = 8K, alignment = 8 { };
"P2":  place in [from 0x2000'0000 to 0x2000'7fff] {
          rw, block CSTACK, block HEAP };
do not initialize { rw section .noinit };

  Section          Kind         Address    Size  Object
  -------          ----         -------    ----  ------
"A0":                                     0x26c
  .intvec          const            0x0   0x26c  startup_ewarm.o [4]
                                - 0x26c   0x26c

"P1":                                    0x284a
  .text            ro code        0x26c   0xf16  xprintffull_nomb.o [9]
  .text            ro code       0x1182     0xa  xsprout.o [9]
  .text            ro code       0x118c    0x16  strchr.o [12]
  .text            ro code       0x11a4    0x40  xfail_s.o [9]
  .text            ro code       0x11e4    0x36  strlen.o [12]
  .text            ro code       0x121c    0x58  memchr.o [12]
  .text            ro code       0x1274    0x76  ABImemcpy_unaligned.o [12]
  .text            ro code       0x12ec    0x70  frexp.o [11]
  .text            ro code       0x135c    0x34  DblCmpLe.o [11]
  .text            ro code       0x1390    0x34  DblCmpGe.o [11]
  .text            ro code       0x13c4   0x13a  ldexp.o [11]
  .text            ro code       0x1500    0x36  DblToS32.o [11]
  .text            ro code       0x1538    0x22  S32ToDbl.o [11]
  .text            ro code       0x155c   0x24e  DblAddSub.o [11]
  .text            ro code       0x17ac   0x246  DblDiv.o [11]
  .text            ro code       0x19f4    0x22  DblToU32.o [11]
  .text            ro code       0x1a18    0x1c  U32ToDbl.o [11]
  .text            ro code       0x1a34   0x1aa  DblMul.o [11]
  .text            ro code       0x1be0   0x230  I64DivMod.o [12]
  .text            ro code       0x1e10     0x6  abort.o [9]
  .text            ro code       0x1e18     0x2  I64DivZer.o [12]
  .text            ro code       0x1e1c    0x14  exit.o [13]
  .text            ro code       0x1e30   0x294  gpio.o [10]
  .text            ro code       0x20c4   0x260  timer.o [7]
  .text            ro code       0x2324    0x84  interrupt.o [10]
  .text            ro code       0x23a8   0x250  gpio.o [5]
  .text            ro code       0x25f8     0x8  cpu.o [10]
  .text            ro code       0x2600   0x140  ultrasonic_sensor.o [3]
  .text            ro code       0x2740   0x10c  main.o [1]
  .text            ro code       0x284c    0xce  uart.o [8]
  .text            ro code       0x291c    0x40  sprintf.o [9]
  .text            ro code       0x295c    0x44  sysctl.o [10]
  .text            ro code       0x29a0    0x38  zero_init3.o [12]
  .text            ro code       0x29d8    0x28  data_init.o [12]
  .text            ro code       0x2a00    0x22  fpinit_M.o [11]
  .iar.init_table  const         0x2a24    0x10  - Linker created -
  .text            ro code       0x2a34    0x1e  cmain.o [12]
  .text            ro code       0x2a52     0x4  low_level_init.o [9]
  .text            ro code       0x2a56     0x4  exit.o [9]
  .text            ro code       0x2a5c     0xa  cexit.o [12]
  .text            ro code       0x2a68    0x1c  cstartup_M.o [12]
  .rodata          const         0x2a84    0x14  main.o [1]
  .text            ro code       0x2a98    0x10  sysTick.o [6]
  .text            ro code       0x2aa8     0xe  startup_ewarm.o [4]
  .rodata          const         0x2ab6     0x0  zero_init3.o [12]
                               - 0x2ab6  0x284a

"P2", part 1 of 2:                          0xc
  .bss             zero     0x2000'0000     0x4  sysTick.o [6]
  .bss             zero     0x2000'0004     0x4  timer.o [7]
  .bss             zero     0x2000'0008     0x4  xfail_s.o [9]
                          - 0x2000'000c     0xc

"P2", part 2 of 2:                        0x400
  .noinit          uninit   0x2000'000c   0x400  startup_ewarm.o [4]
                          - 0x2000'040c   0x400

Unused ranges:

         From           To      Size
         ----           --      ----
       0x2ab6     0x3'ffff  0x3'd54a
  0x2000'040c  0x2000'7fff    0x7bf4


*******************************************************************************
*** INIT TABLE
***

          Address      Size
          -------      ----
Zero (__iar_zero_init3)
    1 destination range, total size 0xc:
          0x2000'0000   0xc



*******************************************************************************
*** MODULE SUMMARY
***

    Module                 ro code  ro data  rw data
    ------                 -------  -------  -------
command line/config:
    ------------------------------------------------
    Total:

D:\ASU\4-Senior1\Fall 23\CSE211 Introduction to Embedded Systems\Project\Code\Debug\Obj: [1]
    main.o                     268       20
    ------------------------------------------------
    Total:                     268       20

D:\ASU\4-Senior1\Fall 23\CSE211 Introduction to Embedded Systems\Project\Code\Debug\Obj\HAL\SMOKE_SENSOR: [2]
    ------------------------------------------------
    Total:

D:\ASU\4-Senior1\Fall 23\CSE211 Introduction to Embedded Systems\Project\Code\Debug\Obj\HAL\ULTRASONIC_SENSOR: [3]
    ultrasonic_sensor.o        320
    ------------------------------------------------
    Total:                     320

D:\ASU\4-Senior1\Fall 23\CSE211 Introduction to Embedded Systems\Project\Code\Debug\Obj\INC: [4]
    startup_ewarm.o             14      620    1'024
    ------------------------------------------------
    Total:                      14      620    1'024

D:\ASU\4-Senior1\Fall 23\CSE211 Introduction to Embedded Systems\Project\Code\Debug\Obj\MCAL\GPIO: [5]
    gpio.o                     592
    ------------------------------------------------
    Total:                     592

D:\ASU\4-Senior1\Fall 23\CSE211 Introduction to Embedded Systems\Project\Code\Debug\Obj\MCAL\SYSTICK: [6]
    sysTick.o                   16                 4
    ------------------------------------------------
    Total:                      16                 4

D:\ASU\4-Senior1\Fall 23\CSE211 Introduction to Embedded Systems\Project\Code\Debug\Obj\MCAL\TIMER: [7]
    timer.o                    608                 4
    ------------------------------------------------
    Total:                     608                 4

D:\ASU\4-Senior1\Fall 23\CSE211 Introduction to Embedded Systems\Project\Code\Debug\Obj\MCAL\UART: [8]
    uart.o                     206
    ------------------------------------------------
    Total:                     206

dl7M_tln.a: [9]
    abort.o                      6
    exit.o                       4
    low_level_init.o             4
    sprintf.o                   64
    xfail_s.o                   64                 4
    xprintffull_nomb.o       3'862
    xsprout.o                   10
    ------------------------------------------------
    Total:                   4'014                 4

driverlib.a: [10]
    cpu.o                        8
    gpio.o                     660
    interrupt.o                132
    sysctl.o                    68
    ------------------------------------------------
    Total:                     868

m7M_tls.a: [11]
    DblAddSub.o                590
    DblCmpGe.o                  52
    DblCmpLe.o                  52
    DblDiv.o                   582
    DblMul.o                   426
    DblToS32.o                  54
    DblToU32.o                  34
    S32ToDbl.o                  34
    U32ToDbl.o                  28
    fpinit_M.o                  34
    frexp.o                    112
    ldexp.o                    314
    ------------------------------------------------
    Total:                   2'312

rt7M_tl.a: [12]
    ABImemcpy_unaligned.o      118
    I64DivMod.o                560
    I64DivZer.o                  2
    cexit.o                     10
    cmain.o                     30
    cstartup_M.o                28
    data_init.o                 40
    memchr.o                    88
    strchr.o                    22
    strlen.o                    54
    zero_init3.o                56
    ------------------------------------------------
    Total:                   1'008

shb_l.a: [13]
    exit.o                      20
    ------------------------------------------------
    Total:                      20

    Gaps                        30        2
    Linker created                       16
----------------------------------------------------
    Grand Total:            10'276      658    1'036


*******************************************************************************
*** ENTRY LIST
***

Entry                       Address   Size  Type      Object
-----                       -------   ----  ----      ------
.iar.init_table$$Base        0x2a24          --   Gb  - Linker created -
.iar.init_table$$Limit       0x2a34          --   Gb  - Linker created -
?main                        0x2a35         Code  Gb  cmain.o [12]
CPUcpsie                     0x25f9    0x8  Code  Gb  cpu.o [10]
FaultISR                     0x2ab3    0x2  Code  Lc  startup_ewarm.o [4]
GPIODirModeSet               0x1e31   0x28  Code  Gb  gpio.o [10]
GPIOPadConfigSet             0x1e59  0x174  Code  Gb  gpio.o [10]
GPIOPinConfigure             0x1fed   0x38  Code  Gb  gpio.o [10]
GPIOPinTypeUART              0x1fd9   0x14  Code  Gb  gpio.o [10]
HAL_ULTRASONIC_Init          0x2625  0x10a  Code  Gb  ultrasonic_sensor.o [3]
HAL_ULTRASONIC_Measure_Distance
                             0x2601   0x24  Code  Gb  ultrasonic_sensor.o [3]
IntDefaultHandler            0x2ab5    0x2  Code  Lc  startup_ewarm.o [4]
IntEnable                    0x2335   0x56  Code  Gb  interrupt.o [10]
IntMasterEnable              0x2325    0x8  Code  Gb  interrupt.o [10]
MCAL_GPIO_Init               0x23a9   0x1c  Code  Gb  gpio.o [5]
MCAL_GPIO_Pin_Init           0x23c5  0x1f0  Code  Gb  gpio.o [5]
MCAL_GPIO_ReadPin            0x25e5   0x14  Code  Gb  gpio.o [5]
MCAL_GPIO_WritePin           0x25c1   0x24  Code  Gb  gpio.o [5]
MCAL_TIMERA_DelayMs_P        0x221d   0x2a  Code  Gb  timer.o [7]
MCAL_TIMERA_Delay_MicroSecond_P
                             0x2247   0x36  Code  Gb  timer.o [7]
MCAL_TIMER_Disable           0x20c5   0x22  Code  Gb  timer.o [7]
MCAL_TIMER_Enable            0x20e7   0x22  Code  Gb  timer.o [7]
MCAL_TIMER_Init              0x2109  0x114  Code  Gb  timer.o [7]
MCAL_TIMER_Measure_Capture_Time
                             0x227d   0x78  Code  Gb  timer.o [7]
MCAL_UART_Init1              0x284d   0x70  Code  Gb  uart.o [8]
MCAL_UART_PrintChar1         0x28bd   0x14  Code  Gb  uart.o [8]
MCAL_UART_PrintString1       0x2905   0x16  Code  Gb  uart.o [8]
NmiSR                        0x2ab1    0x2  Code  Lc  startup_ewarm.o [4]
Region$$Table$$Base          0x2a24          --   Gb  - Linker created -
Region$$Table$$Limit         0x2a34          --   Gb  - Linker created -
ResetISR                     0x2aa9    0x8  Code  Gb  startup_ewarm.o [4]
SysCtlPeripheralEnable       0x297d    0x8  Code  Gb  sysctl.o [10]
SysCtlPeripheralReady        0x295d    0x8  Code  Gb  sysctl.o [10]
SysTick_Handler              0x2a99    0xa  Code  Gb  sysTick.o [6]
TIMER0A_Handler              0x22f5   0x16  Code  Gb  timer.o [7]
_LitobFullNoMb                0xf89  0x10c  Code  Lc  xprintffull_nomb.o [9]
_PrintfFullNoMb               0x26d  0xcec  Code  Gb  xprintffull_nomb.o [9]
_PutcharFullNoMb             0x10ed   0x20  Code  Lc  xprintffull_nomb.o [9]
_PutcharsFullNoMb            0x110d   0x2e  Code  Lc  xprintffull_nomb.o [9]
_SProut                      0x1183    0xa  Code  Gb  xsprout.o [9]
__aeabi_cdcmple              0x135d         Code  Gb  DblCmpLe.o [11]
__aeabi_cdrcmple             0x1391         Code  Gb  DblCmpGe.o [11]
__aeabi_d2iz                 0x1501         Code  Gb  DblToS32.o [11]
__aeabi_d2uiz                0x19f5         Code  Gb  DblToU32.o [11]
__aeabi_ddiv                 0x17ad         Code  Gb  DblDiv.o [11]
__aeabi_dmul                 0x1a35         Code  Gb  DblMul.o [11]
__aeabi_dsub                 0x16c9         Code  Gb  DblAddSub.o [11]
__aeabi_i2d                  0x1539         Code  Gb  S32ToDbl.o [11]
__aeabi_ldiv0                0x1e19         Code  Gb  I64DivZer.o [12]
__aeabi_ui2d                 0x1a19         Code  Gb  U32ToDbl.o [11]
__aeabi_uldivmod             0x1be1         Code  Gb  I64DivMod.o [12]
__cmain                      0x2a35         Code  Gb  cmain.o [12]
__exit                       0x1e1d   0x14  Code  Gb  exit.o [13]
__iar_Fail_s                 0x11a5   0x1c  Code  Gb  xfail_s.o [9]
__iar_Memchr                 0x121d         Code  Gb  memchr.o [12]
__iar_Strchr                 0x118d         Code  Gb  strchr.o [12]
__iar_data_init3             0x29d9   0x28  Code  Gb  data_init.o [12]
__iar_frexp                  0x12f9         Code  Gb  frexp.o [11]
__iar_frexpl                 0x12f9         Code  Gb  frexp.o [11]
__iar_init_vfp               0x2a01         Code  Gb  fpinit_M.o [11]
__iar_ldexp64                0x13c5         Code  Gb  ldexp.o [11]
__iar_program_start          0x2a69         Code  Gb  cstartup_M.o [12]
__iar_scalbln64              0x13c5         Code  Gb  ldexp.o [11]
__iar_scalbn64               0x13c5         Code  Gb  ldexp.o [11]
__iar_softfp___iar_frexp64
                             0x12ed         Code  Gb  frexp.o [11]
__iar_softfp_frexp           0x12ed         Code  Gb  frexp.o [11]
__iar_softfp_frexpl          0x12ed         Code  Gb  frexp.o [11]
__iar_unaligned_memcpy       0x1275         Code  Gb  ABImemcpy_unaligned.o [12]
__iar_unaligned_memcpy4
                             0x1295         Code  Gb  ABImemcpy_unaligned.o [12]
__iar_unaligned_memcpy8
                             0x1295         Code  Gb  ABImemcpy_unaligned.o [12]
__iar_zero_init3             0x29a1   0x38  Code  Gb  zero_init3.o [12]
__low_level_init             0x2a53    0x4  Code  Gb  low_level_init.o [9]
__vector_table                  0x0  0x26c  Data  Gb  startup_ewarm.o [4]
_call_main                   0x2a41         Code  Gb  cmain.o [12]
_exit                        0x2a5d         Code  Gb  cexit.o [12]
abort                        0x1e11    0x6  Code  Gb  abort.o [9]
calbackFunction         0x2000'0000    0x4  Data  Gb  sysTick.o [6]
callbackFunc            0x2000'0004    0x4  Data  Gb  timer.o [7]
exit                         0x2a57    0x4  Code  Gb  exit.o [9]
g_pui32EnRegs                0x2394   0x14  Data  Lc  interrupt.o [10]
g_pui32GPIOBaseAddrs         0x2034   0x90  Data  Lc  gpio.o [10]
init                         0x27a7   0x76  Code  Gb  main.o [1]
ldexp                        0x13c5         Code  Gb  ldexp.o [11]
ldexpl                       0x13c5         Code  Gb  ldexp.o [11]
main                         0x2741   0x66  Code  Gb  main.o [1]
memchr                       0x121d         Code  Gb  memchr.o [12]
pui32Stack              0x2000'000c  0x400  Data  Lc  startup_ewarm.o [4]
scalbln                      0x13c5         Code  Gb  ldexp.o [11]
scalblnl                     0x13c5         Code  Gb  ldexp.o [11]
scalbn                       0x13c5         Code  Gb  ldexp.o [11]
scalbnl                      0x13c5         Code  Gb  ldexp.o [11]
scale                        0x1095   0x46  Code  Lc  xprintffull_nomb.o [9]
sec_hand                0x2000'0008    0x4  Data  Lc  xfail_s.o [9]
sprintf                      0x291d   0x40  Code  Gb  sprintf.o [9]
strchr                       0x118d         Code  Gb  strchr.o [12]
strlen                       0x11e5         Code  Gb  strlen.o [12]
turnOffAll                   0x281d   0x22  Code  Gb  main.o [1]


[1] = D:\ASU\4-Senior1\Fall 23\CSE211 Introduction to Embedded Systems\Project\Code\Debug\Obj
[2] = D:\ASU\4-Senior1\Fall 23\CSE211 Introduction to Embedded Systems\Project\Code\Debug\Obj\HAL\SMOKE_SENSOR
[3] = D:\ASU\4-Senior1\Fall 23\CSE211 Introduction to Embedded Systems\Project\Code\Debug\Obj\HAL\ULTRASONIC_SENSOR
[4] = D:\ASU\4-Senior1\Fall 23\CSE211 Introduction to Embedded Systems\Project\Code\Debug\Obj\INC
[5] = D:\ASU\4-Senior1\Fall 23\CSE211 Introduction to Embedded Systems\Project\Code\Debug\Obj\MCAL\GPIO
[6] = D:\ASU\4-Senior1\Fall 23\CSE211 Introduction to Embedded Systems\Project\Code\Debug\Obj\MCAL\SYSTICK
[7] = D:\ASU\4-Senior1\Fall 23\CSE211 Introduction to Embedded Systems\Project\Code\Debug\Obj\MCAL\TIMER
[8] = D:\ASU\4-Senior1\Fall 23\CSE211 Introduction to Embedded Systems\Project\Code\Debug\Obj\MCAL\UART
[9] = dl7M_tln.a
[10] = driverlib.a
[11] = m7M_tls.a
[12] = rt7M_tl.a
[13] = shb_l.a

  10'276 bytes of readonly  code memory
     658 bytes of readonly  data memory
   1'036 bytes of readwrite data memory

Errors: none
Warnings: 1
